; ModuleID = '28/1277.c'
source_filename = "28/1277.c"
target datalayout = "e-m:e-p270:32:32-p271:32:32-p272:64:64-i64:64-f80:128-n8:16:32:64-S128"
target triple = "x86_64-pc-linux-gnu"

@.str = private unnamed_addr constant [3 x i8] c"%d\00", align 1
@.str.1 = private unnamed_addr constant [4 x i8] c",%d\00", align 1

; Function Attrs: noinline nounwind uwtable
define dso_local void @main() #0 {
  %1 = alloca [10000 x i8], align 16
  %2 = alloca i32, align 4
  %3 = alloca i32, align 4
  %4 = alloca i32, align 4
  %5 = alloca i32, align 4
  %6 = alloca [300 x i32], align 16
  %7 = alloca [300 x i32], align 16
  %8 = alloca [30 x i32], align 16
  store i32 0, i32* %4, align 4
  store i32 0, i32* %5, align 4
  %9 = getelementptr inbounds [300 x i32], [300 x i32]* %6, i64 0, i64 0
  store i32 0, i32* %9, align 16
  %10 = getelementptr inbounds [10000 x i8], [10000 x i8]* %1, i64 0, i64 0
  %11 = call i32 (i8*, ...) bitcast (i32 (...)* @gets to i32 (i8*, ...)*)(i8* %10)
  %12 = getelementptr inbounds [10000 x i8], [10000 x i8]* %1, i64 0, i64 0
  %13 = call i64 @strlen(i8* %12) #3
  %14 = trunc i64 %13 to i32
  store i32 %14, i32* %3, align 4
  store i32 1, i32* %2, align 4
  br label %15

15:                                               ; preds = %71, %0
  %16 = load i32, i32* %2, align 4
  %17 = load i32, i32* %3, align 4
  %18 = icmp slt i32 %16, %17
  br i1 %18, label %19, label %74

19:                                               ; preds = %15
  %20 = load i32, i32* %2, align 4
  %21 = sext i32 %20 to i64
  %22 = getelementptr inbounds [10000 x i8], [10000 x i8]* %1, i64 0, i64 %21
  %23 = load i8, i8* %22, align 1
  %24 = sext i8 %23 to i32
  %25 = icmp eq i32 %24, 32
  br i1 %25, label %26, label %42

26:                                               ; preds = %19
  %27 = load i32, i32* %2, align 4
  %28 = sub nsw i32 %27, 1
  %29 = sext i32 %28 to i64
  %30 = getelementptr inbounds [10000 x i8], [10000 x i8]* %1, i64 0, i64 %29
  %31 = load i8, i8* %30, align 1
  %32 = sext i8 %31 to i32
  %33 = icmp ne i32 %32, 32
  br i1 %33, label %34, label %42

34:                                               ; preds = %26
  %35 = load i32, i32* %2, align 4
  %36 = load i32, i32* %2, align 4
  %37 = load i32, i32* %4, align 4
  %38 = sub nsw i32 %36, %37
  %39 = sub nsw i32 %38, 1
  %40 = sext i32 %39 to i64
  %41 = getelementptr inbounds [300 x i32], [300 x i32]* %7, i64 0, i64 %40
  store i32 %35, i32* %41, align 4
  br label %45

42:                                               ; preds = %26, %19
  %43 = load i32, i32* %4, align 4
  %44 = add nsw i32 %43, 1
  store i32 %44, i32* %4, align 4
  br label %45

45:                                               ; preds = %42, %34
  %46 = load i32, i32* %2, align 4
  %47 = sub nsw i32 %46, 1
  %48 = sext i32 %47 to i64
  %49 = getelementptr inbounds [10000 x i8], [10000 x i8]* %1, i64 0, i64 %48
  %50 = load i8, i8* %49, align 1
  %51 = sext i8 %50 to i32
  %52 = icmp eq i32 %51, 32
  br i1 %52, label %53, label %67

53:                                               ; preds = %45
  %54 = load i32, i32* %2, align 4
  %55 = sext i32 %54 to i64
  %56 = getelementptr inbounds [10000 x i8], [10000 x i8]* %1, i64 0, i64 %55
  %57 = load i8, i8* %56, align 1
  %58 = sext i8 %57 to i32
  %59 = icmp ne i32 %58, 32
  br i1 %59, label %60, label %67

60:                                               ; preds = %53
  %61 = load i32, i32* %2, align 4
  %62 = load i32, i32* %2, align 4
  %63 = load i32, i32* %5, align 4
  %64 = sub nsw i32 %62, %63
  %65 = sext i32 %64 to i64
  %66 = getelementptr inbounds [300 x i32], [300 x i32]* %6, i64 0, i64 %65
  store i32 %61, i32* %66, align 4
  br label %70

67:                                               ; preds = %53, %45
  %68 = load i32, i32* %5, align 4
  %69 = add nsw i32 %68, 1
  store i32 %69, i32* %5, align 4
  br label %70

70:                                               ; preds = %67, %60
  br label %71

71:                                               ; preds = %70
  %72 = load i32, i32* %2, align 4
  %73 = add nsw i32 %72, 1
  store i32 %73, i32* %2, align 4
  br label %15

74:                                               ; preds = %15
  %75 = load i32, i32* %3, align 4
  %76 = load i32, i32* %3, align 4
  %77 = load i32, i32* %4, align 4
  %78 = sub nsw i32 %76, %77
  %79 = sub nsw i32 %78, 1
  %80 = sext i32 %79 to i64
  %81 = getelementptr inbounds [300 x i32], [300 x i32]* %7, i64 0, i64 %80
  store i32 %75, i32* %81, align 4
  store i32 0, i32* %2, align 4
  br label %82

82:                                               ; preds = %101, %74
  %83 = load i32, i32* %2, align 4
  %84 = load i32, i32* %3, align 4
  %85 = load i32, i32* %5, align 4
  %86 = sub nsw i32 %84, %85
  %87 = icmp slt i32 %83, %86
  br i1 %87, label %88, label %104

88:                                               ; preds = %82
  %89 = load i32, i32* %2, align 4
  %90 = sext i32 %89 to i64
  %91 = getelementptr inbounds [300 x i32], [300 x i32]* %7, i64 0, i64 %90
  %92 = load i32, i32* %91, align 4
  %93 = load i32, i32* %2, align 4
  %94 = sext i32 %93 to i64
  %95 = getelementptr inbounds [300 x i32], [300 x i32]* %6, i64 0, i64 %94
  %96 = load i32, i32* %95, align 4
  %97 = sub nsw i32 %92, %96
  %98 = load i32, i32* %2, align 4
  %99 = sext i32 %98 to i64
  %100 = getelementptr inbounds [30 x i32], [30 x i32]* %8, i64 0, i64 %99
  store i32 %97, i32* %100, align 4
  br label %101

101:                                              ; preds = %88
  %102 = load i32, i32* %2, align 4
  %103 = add nsw i32 %102, 1
  store i32 %103, i32* %2, align 4
  br label %82

104:                                              ; preds = %82
  %105 = getelementptr inbounds [30 x i32], [30 x i32]* %8, i64 0, i64 0
  %106 = load i32, i32* %105, align 16
  %107 = call i32 (i8*, ...) @printf(i8* getelementptr inbounds ([3 x i8], [3 x i8]* @.str, i64 0, i64 0), i32 %106)
  store i32 1, i32* %2, align 4
  br label %108

108:                                              ; preds = %120, %104
  %109 = load i32, i32* %2, align 4
  %110 = load i32, i32* %3, align 4
  %111 = load i32, i32* %5, align 4
  %112 = sub nsw i32 %110, %111
  %113 = icmp slt i32 %109, %112
  br i1 %113, label %114, label %123

114:                                              ; preds = %108
  %115 = load i32, i32* %2, align 4
  %116 = sext i32 %115 to i64
  %117 = getelementptr inbounds [30 x i32], [30 x i32]* %8, i64 0, i64 %116
  %118 = load i32, i32* %117, align 4
  %119 = call i32 (i8*, ...) @printf(i8* getelementptr inbounds ([4 x i8], [4 x i8]* @.str.1, i64 0, i64 0), i32 %118)
  br label %120

120:                                              ; preds = %114
  %121 = load i32, i32* %2, align 4
  %122 = add nsw i32 %121, 1
  store i32 %122, i32* %2, align 4
  br label %108

123:                                              ; preds = %108
  ret void
}

declare dso_local i32 @gets(...) #1

; Function Attrs: nounwind readonly
declare dso_local i64 @strlen(i8*) #2

declare dso_local i32 @printf(i8*, ...) #1


!llvm.module.flags = !{!0}
!llvm.ident = !{!1}

!0 = !{i32 1, !"wchar_size", i32 4}
!1 = !{!"clang version 10.0.0-4ubuntu1 "}
